(dp0
S'frame_id'
p1
V/table
p2
sS'offset_x'
p3
V-0.4
p4
sS'offset_y'
p5
V-0.468
p6
sS'offset_z'
p7
V0.0
p8
sS'resolution'
p9
V0.00125
p10
sS'polygons'
p11
(dp12
Vmno
p13
(i__main__
PolygonInfo
p14
(dp15
S'polygon'
p16
cPySide.QtGui
QPolygon
p17
((lp18
cPySide.QtCore
QPoint
p19
(I525
I110
tp20
Rp21
ag19
(I350
I110
tp22
Rp23
ag19
(I350
I220
tp24
Rp25
ag19
(I525
I220
tp26
Rp27
atp28
Rp29
sS'text_rect'
p30
cPySide.QtCore
QRect
p31
(I350
I110
I176
I111
tp32
Rp33
sS'id'
p34
g13
sS'name'
p35
VM N O\u000a5
p36
sbsVchoice3
p37
(i__main__
PolygonInfo
p38
(dp39
g16
g17
((lp40
g19
(I525
I165
tp41
Rp42
ag19
(I640
I165
tp43
Rp44
ag19
(I640
I110
tp45
Rp46
ag19
(I525
I110
tp47
Rp48
atp49
Rp50
sg30
g31
(I525
I110
I116
I56
tp51
Rp52
sg34
g37
sg35
VChoice 3
p53
sbsVstuv
p54
(i__main__
PolygonInfo
p55
(dp56
g16
g17
((lp57
g19
(I350
I220
tp58
Rp59
ag19
(I350
I330
tp60
Rp61
ag19
(I175
I330
tp62
Rp63
ag19
(I175
I220
tp64
Rp65
atp66
Rp67
sg30
g31
(I175
I220
I176
I111
tp68
Rp69
sg34
g54
sg35
VS T U V\u000a7 8
p70
sbsVchoice4
p71
(i__main__
PolygonInfo
p72
(dp73
g16
g17
((lp74
g19
(I525
I165
tp75
Rp76
ag19
(I525
I220
tp77
Rp78
ag19
(I640
I220
tp79
Rp80
ag19
(I640
I165
tp81
Rp82
atp83
Rp84
sg30
g31
(I525
I165
I116
I56
tp85
Rp86
sg34
g71
sg35
VChoice 4
p87
sbsVchoice5
p88
(i__main__
PolygonInfo
p89
(dp90
g16
g17
((lp91
g19
(I525
I220
tp92
Rp93
ag19
(I525
I275
tp94
Rp95
ag19
(I640
I275
tp96
Rp97
ag19
(I640
I220
tp98
Rp99
atp100
Rp101
sg30
g31
(I525
I220
I116
I56
tp102
Rp103
sg34
g88
sg35
VChoice 5
p104
sbsVchoice6
p105
(i__main__
PolygonInfo
p106
(dp107
g16
g17
((lp108
g19
(I525
I275
tp109
Rp110
ag19
(I525
I330
tp111
Rp112
ag19
(I640
I330
tp113
Rp114
ag19
(I640
I275
tp115
Rp116
atp117
Rp118
sg30
g31
(I525
I275
I116
I56
tp119
Rp120
sg34
g105
sg35
VChoice 6
p121
sbsVchoice1
p122
(i__main__
PolygonInfo
p123
(dp124
g16
g17
((lp125
g19
(I525
I0
tp126
Rp127
ag19
(I640
I0
tp128
Rp129
ag19
(I640
I55
tp130
Rp131
ag19
(I525
I55
tp132
Rp133
atp134
Rp135
sg30
g31
(I525
I0
I116
I56
tp136
Rp137
sg34
g122
sg35
VChoice 1
p138
sbsVchoice2
p139
(i__main__
PolygonInfo
p140
(dp141
g16
g17
((lp142
g19
(I640
I110
tp143
Rp144
ag19
(I640
I55
tp145
Rp146
ag19
(I525
I55
tp147
Rp148
ag19
(I525
I110
tp149
Rp150
atp151
Rp152
sg30
g31
(I525
I55
I116
I56
tp153
Rp154
sg34
g139
sg35
VChoice 2
p155
sbsVsent
p156
(i__main__
PolygonInfo
p157
(dp158
g16
g17
((lp159
g19
(I640
I330
tp160
Rp161
ag19
(I640
I400
tp162
Rp163
ag19
(I0
I400
tp164
Rp165
ag19
(I0
I330
tp166
Rp167
atp168
Rp169
sg30
g31
(I0
I330
I641
I71
tp170
Rp171
sg34
g156
sg35
VSentence
p172
sbsVjkl
p173
(i__main__
PolygonInfo
p174
(dp175
g16
g17
((lp176
g19
(I175
I220
tp177
Rp178
ag19
(I0
I220
tp179
Rp180
ag19
(I0
I110
tp181
Rp182
ag19
(I175
I110
tp183
Rp184
atp185
Rp186
sg30
g31
(I0
I110
I176
I111
tp187
Rp188
sg34
g173
sg35
VJ K L\u000a4
p189
sbsVpqr
p190
(i__main__
PolygonInfo
p191
(dp192
g16
g17
((lp193
g19
(I175
I220
tp194
Rp195
ag19
(I175
I330
tp196
Rp197
ag19
(I0
I330
tp198
Rp199
ag19
(I0
I220
tp200
Rp201
atp202
Rp203
sg30
g31
(I0
I220
I176
I111
tp204
Rp205
sg34
g190
sg35
VP Q R\u000a6
p206
sbsVabc
p207
(i__main__
PolygonInfo
p208
(dp209
g16
g17
((lp210
g19
(I0
I0
tp211
Rp212
ag19
(I0
I110
tp213
Rp214
ag19
(I175
I110
tp215
Rp216
ag19
(I175
I0
tp217
Rp218
atp219
Rp220
sg30
g31
(I0
I0
I176
I111
tp221
Rp222
sg34
g207
sg35
VA B C\u000a1
p223
sbsVcenter
p224
(i__main__
PolygonInfo
p225
(dp226
g16
g17
((lp227
g19
(I175
I220
tp228
Rp229
ag19
(I350
I220
tp230
Rp231
ag19
(I350
I110
tp232
Rp233
ag19
(I175
I110
tp234
Rp235
atp236
Rp237
sg30
g31
(I175
I110
I176
I111
tp238
Rp239
sg34
g224
sg35
V0
p240
sbsVwxyz
p241
(i__main__
PolygonInfo
p242
(dp243
g16
g17
((lp244
g19
(I350
I330
tp245
Rp246
ag19
(I525
I330
tp247
Rp248
ag19
(I525
I220
tp249
Rp250
ag19
(I350
I220
tp251
Rp252
atp253
Rp254
sg30
g31
(I350
I220
I176
I111
tp255
Rp256
sg34
g241
sg35
VW X Y Z\u000a9
p257
sbsVghi
p258
(i__main__
PolygonInfo
p259
(dp260
g16
g17
((lp261
g19
(I525
I0
tp262
Rp263
ag19
(I350
I0
tp264
Rp265
ag19
(I350
I110
tp266
Rp267
ag19
(I525
I110
tp268
Rp269
atp270
Rp271
sg30
g31
(I350
I0
I176
I111
tp272
Rp273
sg34
g258
sg35
VG H I\u000a3
p274
sbsVdef
p275
(i__main__
PolygonInfo
p276
(dp277
g16
g17
((lp278
g19
(I350
I110
tp279
Rp280
ag19
(I350
I0
tp281
Rp282
ag19
(I175
I0
tp283
Rp284
ag19
(I175
I110
tp285
Rp286
atp287
Rp288
sg30
g31
(I175
I0
I176
I111
tp289
Rp290
sg34
g275
sg35
VD E F\u000a2
p291
sbss.