(dp0
S'frame_id'
p1
V/table
p2
sS'offset_x'
p3
V-0.24
p4
sS'offset_y'
p5
V-0.37
p6
sS'offset_z'
p7
V0.0
p8
sS'resolution'
p9
V0.0011
p10
sS'polygons'
p11
(dp12
Vabc
p13
(iprojected_interface_builder.data_structures
PolygonInfo
p14
(dp15
S'polygon'
p16
cPySide.QtGui
QPolygon
p17
((lp18
cPySide.QtCore
QPoint
p19
(I-1000
I-1000
tp20
Rp21
ag19
(I-1000
I110
tp22
Rp23
ag19
(I175
I110
tp24
Rp25
ag19
(I175
I-1000
tp26
Rp27
atp28
Rp29
sS'text_rect'
p30
cPySide.QtCore
QRect
p31
(I37
I15
I101
I82
tp32
Rp33
sS'id'
p34
g13
sS'name'
p35
VA B C\u000a1
p36
sbsVstuv
p37
(iprojected_interface_builder.data_structures
PolygonInfo
p38
(dp39
g16
g17
((lp40
g19
(I350
I220
tp41
Rp42
ag19
(I350
I330
tp43
Rp44
ag19
(I175
I330
tp45
Rp46
ag19
(I175
I220
tp47
Rp48
atp49
Rp50
sg30
g31
(I195
I235
I135
I82
tp51
Rp52
sg34
g37
sg35
VS T U V\u000a7 8
p53
sbsVcenter
p54
(iprojected_interface_builder.data_structures
PolygonInfo
p55
(dp56
g16
g17
((lp57
g19
(I175
I220
tp58
Rp59
ag19
(I350
I220
tp60
Rp61
ag19
(I350
I110
tp62
Rp63
ag19
(I175
I110
tp64
Rp65
atp66
Rp67
sg30
g31
(I175
I110
I176
I111
tp68
Rp69
sg34
g54
sg35
V0
p70
sbsVdelletter
p71
(iprojected_interface_builder.data_structures
PolygonInfo
p72
(dp73
g34
g71
sg30
g31
(I-34
I345
I246
I41
tp74
Rp75
sg16
g17
((lp76
g19
(I-1000
I1000
tp77
Rp78
ag19
(I-1000
I330
tp79
Rp80
ag19
(I175
I330
tp81
Rp82
ag19
(I175
I1000
tp83
Rp84
atp85
Rp86
sg35
VDelete Letter
p87
sbsVchoice4
p88
(iprojected_interface_builder.data_structures
PolygonInfo
p89
(dp90
g16
g17
((lp91
g19
(I525
I165
tp92
Rp93
ag19
(I525
I220
tp94
Rp95
ag19
(I1640
I220
tp96
Rp97
ag19
(I1640
I165
tp98
Rp99
atp100
Rp101
sg30
g31
(I502
I172
I162
I41
tp102
Rp103
sg34
g88
sg35
S''
p104
sbsVchoice5
p105
(iprojected_interface_builder.data_structures
PolygonInfo
p106
(dp107
g16
g17
((lp108
g19
(I525
I220
tp109
Rp110
ag19
(I525
I275
tp111
Rp112
ag19
(I1640
I275
tp113
Rp114
ag19
(I1640
I220
tp115
Rp116
atp117
Rp118
sg30
g31
(I502
I227
I162
I41
tp119
Rp120
sg34
g105
sg35
g104
sbsVchoice6
p121
(iprojected_interface_builder.data_structures
PolygonInfo
p122
(dp123
g16
g17
((lp124
g19
(I525
I275
tp125
Rp126
ag19
(I525
I330
tp127
Rp128
ag19
(I1640
I330
tp129
Rp130
ag19
(I1640
I275
tp131
Rp132
atp133
Rp134
sg30
g31
(I502
I282
I162
I41
tp135
Rp136
sg34
g121
sg35
g104
sbsVchoice1
p137
(iprojected_interface_builder.data_structures
PolygonInfo
p138
(dp139
g16
g17
((lp140
g19
(I525
I-1000
tp141
Rp142
ag19
(I1640
I-1000
tp143
Rp144
ag19
(I1640
I55
tp145
Rp146
ag19
(I525
I55
tp147
Rp148
atp149
Rp150
sg30
g31
(I502
I7
I162
I41
tp151
Rp152
sg34
g137
sg35
g104
sbsVchoice2
p153
(iprojected_interface_builder.data_structures
PolygonInfo
p154
(dp155
g16
g17
((lp156
g19
(I1640
I110
tp157
Rp158
ag19
(I1640
I55
tp159
Rp160
ag19
(I525
I55
tp161
Rp162
ag19
(I525
I110
tp163
Rp164
atp165
Rp166
sg30
g31
(I502
I62
I162
I41
tp167
Rp168
sg34
g153
sg35
g104
sbsVchoice3
p169
(iprojected_interface_builder.data_structures
PolygonInfo
p170
(dp171
g16
g17
((lp172
g19
(I525
I165
tp173
Rp174
ag19
(I1640
I165
tp175
Rp176
ag19
(I1640
I110
tp177
Rp178
ag19
(I525
I110
tp179
Rp180
atp181
Rp182
sg30
g31
(I502
I117
I162
I41
tp183
Rp184
sg34
g169
sg35
g104
sbsVjkl
p185
(iprojected_interface_builder.data_structures
PolygonInfo
p186
(dp187
g16
g17
((lp188
g19
(I175
I220
tp189
Rp190
ag19
(I-1000
I220
tp191
Rp192
ag19
(I-1000
I110
tp193
Rp194
ag19
(I175
I110
tp195
Rp196
atp197
Rp198
sg30
g31
(I48
I125
I80
I82
tp199
Rp200
sg34
g185
sg35
VJ K L\u000a4
p201
sbsVdelword
p202
(iprojected_interface_builder.data_structures
PolygonInfo
p203
(dp204
g34
Vdelword
p205
sg30
g31
(I437
I345
I230
I41
tp206
Rp207
sg16
g17
((lp208
g19
(I465
I330
tp209
Rp210
ag19
(I1000
I330
tp211
Rp212
ag19
(I1000
I1000
tp213
Rp214
ag19
(I465
I1000
tp215
Rp216
atp217
Rp218
sg35
VDelete Word
p219
sbsVpqr
p220
(iprojected_interface_builder.data_structures
PolygonInfo
p221
(dp222
g16
g17
((lp223
g19
(I175
I220
tp224
Rp225
ag19
(I175
I330
tp226
Rp227
ag19
(I-1000
I330
tp228
Rp229
ag19
(I-1000
I220
tp230
Rp231
atp232
Rp233
sg30
g31
(I37
I235
I102
I82
tp234
Rp235
sg34
g220
sg35
VP Q R\u000a6
p236
sbsVwxyz
p237
(iprojected_interface_builder.data_structures
PolygonInfo
p238
(dp239
g16
g17
((lp240
g19
(I350
I330
tp241
Rp242
ag19
(I525
I330
tp243
Rp244
ag19
(I525
I220
tp245
Rp246
ag19
(I350
I220
tp247
Rp248
atp249
Rp250
sg30
g31
(I350
I220
I176
I111
tp251
Rp252
sg34
g237
sg35
VW X Y Z\u000a9
p253
sbsVsent
p254
(iprojected_interface_builder.data_structures
PolygonInfo
p255
(dp256
g16
g17
((lp257
g19
(I465
I330
tp258
Rp259
ag19
(I465
I400
tp260
Rp261
ag19
(I175
I400
tp262
Rp263
ag19
(I175
I330
tp264
Rp265
atp266
Rp267
sg30
g31
(I185
I339
I270
I41
tp268
Rp269
sg34
g254
sg35
V--------------------
p270
sbsVmno
p271
(iprojected_interface_builder.data_structures
PolygonInfo
p272
(dp273
g16
g17
((lp274
g19
(I525
I110
tp275
Rp276
ag19
(I350
I110
tp277
Rp278
ag19
(I350
I220
tp279
Rp280
ag19
(I525
I220
tp281
Rp282
atp283
Rp284
sg30
g31
(I381
I125
I113
I82
tp285
Rp286
sg34
g271
sg35
VM N O\u000a5
p287
sbsVghi
p288
(iprojected_interface_builder.data_structures
PolygonInfo
p289
(dp290
g16
g17
((lp291
g19
(I525
I-1000
tp292
Rp293
ag19
(I350
I-1000
tp294
Rp295
ag19
(I350
I110
tp296
Rp297
ag19
(I525
I110
tp298
Rp299
atp300
Rp301
sg30
g31
(I392
I15
I92
I82
tp302
Rp303
sg34
g288
sg35
VG H I\u000a3
p304
sbsVdef
p305
(iprojected_interface_builder.data_structures
PolygonInfo
p306
(dp307
g16
g17
((lp308
g19
(I350
I110
tp309
Rp310
ag19
(I350
I-1000
tp311
Rp312
ag19
(I175
I-1000
tp313
Rp314
ag19
(I175
I110
tp315
Rp316
atp317
Rp318
sg30
g31
(I214
I15
I97
I82
tp319
Rp320
sg34
g305
sg35
VD E F\u000a2
p321
sbss.