(dp0
S'frame_id'
p1
V/table
p2
sS'offset_x'
p3
V-0.285
p4
sS'offset_y'
p5
V-0.45
p6
sS'offset_z'
p7
V0.0
p8
sS'resolution'
p9
V0.0011
p10
sS'polygons'
p11
(dp12
VD E F\u000a2
p13
cPySide.QtGui
QPolygon
p14
((lp15
cPySide.QtCore
QPoint
p16
(I350
I133
tp17
Rp18
ag16
(I350
I0
tp19
Rp20
ag16
(I175
I0
tp21
Rp22
ag16
(I175
I133
tp23
Rp24
atp25
Rp26
sVP Q R\u000a6
p27
g14
((lp28
g16
(I175
I266
tp29
Rp30
ag16
(I175
I400
tp31
Rp32
ag16
(I0
I400
tp33
Rp34
ag16
(I0
I266
tp35
Rp36
atp37
Rp38
sVA B C\u000a1
p39
g14
((lp40
g16
(I0
I0
tp41
Rp42
ag16
(I0
I133
tp43
Rp44
ag16
(I175
I133
tp45
Rp46
ag16
(I175
I0
tp47
Rp48
atp49
Rp50
sVChoice 5
p51
g14
((lp52
g16
(I525
I266
tp53
Rp54
ag16
(I525
I332
tp55
Rp56
ag16
(I639
I332
tp57
Rp58
ag16
(I638
I266
tp59
Rp60
atp61
Rp62
sVW X Y Z\u000a9
p63
g14
((lp64
g16
(I350
I400
tp65
Rp66
ag16
(I525
I400
tp67
Rp68
ag16
(I525
I266
tp69
Rp70
ag16
(I350
I266
tp71
Rp72
atp73
Rp74
sVChoice 2
p75
g14
((lp76
g16
(I640
I133
tp77
Rp78
ag16
(I640
I66
tp79
Rp80
ag16
(I525
I66
tp81
Rp82
ag16
(I525
I133
tp83
Rp84
atp85
Rp86
sVJ K L\u000a4
p87
g14
((lp88
g16
(I175
I266
tp89
Rp90
ag16
(I0
I266
tp91
Rp92
ag16
(I0
I133
tp93
Rp94
ag16
(I175
I133
tp95
Rp96
atp97
Rp98
sVChoice 4
p99
g14
((lp100
g16
(I525
I204
tp101
Rp102
ag16
(I525
I266
tp103
Rp104
ag16
(I638
I266
tp105
Rp106
ag16
(I637
I204
tp107
Rp108
ag16
(I638
I203
tp109
Rp110
atp111
Rp112
sVChoice 1
p113
g14
((lp114
g16
(I525
I0
tp115
Rp116
ag16
(I640
I0
tp117
Rp118
ag16
(I640
I66
tp119
Rp120
ag16
(I525
I66
tp121
Rp122
atp123
Rp124
sV0
p125
g14
((lp126
g16
(I175
I266
tp127
Rp128
ag16
(I350
I266
tp129
Rp130
ag16
(I350
I133
tp131
Rp132
ag16
(I175
I133
tp133
Rp134
atp135
Rp136
sS'Polygon 14'
p137
g14
((lp138
g16
(I525
I200
tp139
Rp140
ag16
(I640
I200
tp141
Rp142
ag16
(I640
I133
tp143
Rp144
ag16
(I525
I133
tp145
Rp146
atp147
Rp148
sVM N O\u000a5
p149
g14
((lp150
g16
(I525
I133
tp151
Rp152
ag16
(I350
I133
tp153
Rp154
ag16
(I350
I266
tp155
Rp156
ag16
(I525
I266
tp157
Rp158
atp159
Rp160
sVChoice 6
p161
g14
((lp162
g16
(I525
I332
tp163
Rp164
ag16
(I525
I400
tp165
Rp166
ag16
(I639
I400
tp167
Rp168
ag16
(I639
I332
tp169
Rp170
ag16
(I639
I334
tp171
Rp172
atp173
Rp174
sVG H I\u000a3
p175
g14
((lp176
g16
(I525
I0
tp177
Rp178
ag16
(I350
I0
tp179
Rp180
ag16
(I350
I133
tp181
Rp182
ag16
(I525
I133
tp183
Rp184
atp185
Rp186
sVS T U V\u000a7 8
p187
g14
((lp188
g16
(I350
I266
tp189
Rp190
ag16
(I350
I400
tp191
Rp192
ag16
(I175
I400
tp193
Rp194
ag16
(I175
I266
tp195
Rp196
ag16
(I213
I266
tp197
Rp198
atp199
Rp200
ss.