(dp0
S'frame_id'
p1
V/base_link
p2
sS'offset_x'
p3
V0.0
p4
sS'offset_y'
p5
V0.0
p6
sS'offset_z'
p7
V0.0
p8
sS'resolution'
p9
V1
p10
sS'polygons'
p11
(dp12
VG H I
p13
cPySide.QtGui
QPolygon
p14
((lp15
cPySide.QtCore
QPoint
p16
(I640
I0
tp17
Rp18
ag16
(I422
I0
tp19
Rp20
ag16
(I422
I133
tp21
Rp22
ag16
(I640
I133
tp23
Rp24
atp25
Rp26
sVA B C
p27
g14
((lp28
g16
(I0
I0
tp29
Rp30
ag16
(I0
I133
tp31
Rp32
ag16
(I213
I133
tp33
Rp34
ag16
(I213
I0
tp35
Rp36
atp37
Rp38
sVD E F
p39
g14
((lp40
g16
(I422
I133
tp41
Rp42
ag16
(I422
I0
tp43
Rp44
ag16
(I213
I0
tp45
Rp46
ag16
(I213
I133
tp47
Rp48
atp49
Rp50
sVJ K L
p51
g14
((lp52
g16
(I213
I266
tp53
Rp54
ag16
(I0
I266
tp55
Rp56
ag16
(I0
I133
tp57
Rp58
ag16
(I213
I133
tp59
Rp60
atp61
Rp62
sV0
p63
g14
((lp64
g16
(I213
I266
tp65
Rp66
ag16
(I422
I266
tp67
Rp68
ag16
(I422
I133
tp69
Rp70
ag16
(I213
I133
tp71
Rp72
atp73
Rp74
sVS T U V
p75
g14
((lp76
g16
(I422
I266
tp77
Rp78
ag16
(I422
I400
tp79
Rp80
ag16
(I213
I400
tp81
Rp82
ag16
(I213
I266
tp83
Rp84
ag16
(I213
I266
tp85
Rp86
atp87
Rp88
sVM N O
p89
g14
((lp90
g16
(I640
I133
tp91
Rp92
ag16
(I422
I133
tp93
Rp94
ag16
(I422
I266
tp95
Rp96
ag16
(I640
I266
tp97
Rp98
atp99
Rp100
sVW X Y Z
p101
g14
((lp102
g16
(I422
I400
tp103
Rp104
ag16
(I640
I400
tp105
Rp106
ag16
(I640
I266
tp107
Rp108
ag16
(I422
I266
tp109
Rp110
atp111
Rp112
sVP Q R
p113
g14
((lp114
g16
(I213
I266
tp115
Rp116
ag16
(I213
I400
tp117
Rp118
ag16
(I0
I400
tp119
Rp120
ag16
(I0
I266
tp121
Rp122
atp123
Rp124
ss.