(dp0
S'frame_id'
p1
V/table_marker
p2
sS'offset_x'
p3
V0.2
p4
sS'offset_y'
p5
V-0.4
p6
sS'offset_z'
p7
V0.0
p8
sS'resolution'
p9
V0.0025
p10
sS'polygons'
p11
(dp12
Vl_0
p13
(iprojected_interface_builder.data_structures
PolygonInfo
p14
(dp15
S'polygon'
p16
cPySide.QtGui
QPolygon
p17
((lp18
cPySide.QtCore
QPoint
p19
(I45
I40
tp20
Rp21
ag19
(I45
I100
tp22
Rp23
ag19
(I100
I100
tp24
Rp25
ag19
(I100
I40
tp26
Rp27
atp28
Rp29
sS'text_rect'
p30
cPySide.QtCore
QRect
p31
(I67
I47
I0
I41
tp32
Rp33
sS'id'
p34
g13
sS'name'
p35
V
p36
sbsVl_1
p37
(iprojected_interface_builder.data_structures
PolygonInfo
p38
(dp39
g16
g17
((lp40
g19
(I150
I40
tp41
Rp42
ag19
(I150
I100
tp43
Rp44
ag19
(I150
I100
tp45
Rp46
atp47
Rp48
sg30
g31
(I143
I45
I0
I41
tp49
Rp50
sg34
g37
sg35
g36
sbsVchup
p51
(iprojected_interface_builder.data_structures
PolygonInfo
p52
(dp53
g16
g17
((lp54
g19
(I107
I115
tp55
Rp56
ag19
(I30
I215
tp57
Rp58
ag19
(I185
I215
tp59
Rp60
atp61
Rp62
sg30
g31
(I92
I140
I0
I41
tp63
Rp64
sg34
g51
sg35
g36
sbsVchdown
p65
(iprojected_interface_builder.data_structures
PolygonInfo
p66
(dp67
g16
g17
((lp68
g19
(I30
I215
tp69
Rp70
ag19
(I107
I314
tp71
Rp72
ag19
(I185
I215
tp73
Rp74
atp75
Rp76
sg30
g31
(I102
I244
I0
I41
tp77
Rp78
sg34
g65
sg35
g36
sbsVslash
p79
(iprojected_interface_builder.data_structures
PolygonInfo
p80
(dp81
g16
g17
((lp82
g19
(I103
I27
tp83
Rp84
ag19
(I137
I103
tp85
Rp86
atp87
Rp88
sg30
g31
(I118
I45
I0
I41
tp89
Rp90
sg34
g79
sg35
g36
sbsVonoff
p91
(iprojected_interface_builder.data_structures
PolygonInfo
p92
(dp93
g16
g17
((lp94
g19
(I30
I16
tp95
Rp96
ag19
(I30
I115
tp97
Rp98
ag19
(I185
I115
tp99
Rp100
ag19
(I185
I16
tp101
Rp102
atp103
Rp104
sg30
g31
(I104
I45
I0
I41
tp105
Rp106
sg34
g91
sg35
g36
sbss.